Certificate:
    Data:
        Version: 3 (0x2)
        Serial Number: 2 (0x2)
    Signature Algorithm: sha256WithRSAEncryption
        Issuer: C=IN, ST=Karnataka, L=Bengaluru, O=Postdot Technologies Pvt Ltd, OU=Postmanlabs, CN=Newman/emailAddress=help@getpostman.com
        Validity
            Not Before: Dec 15 15:12:29 2016 GMT
            Not After : Jan  2 15:12:29 2085 GMT
        Subject: C=IN, ST=Karnataka, L=Bengaluru, O=Postdot Technologies Pvt Ltd, OU=Newman, CN=Postmanlabs/emailAddress=help@getpostman.com
        Subject Public Key Info:
            Public Key Algorithm: rsaEncryption
                Public-Key: (4096 bit)
                Modulus:
                    00:c5:1a:b1:40:64:a5:bf:0a:f3:86:82:f6:33:cd:
                    79:0f:ec:ef:e3:0d:36:5d:6a:49:c2:53:fa:45:f6:
                    b3:f6:d4:cb:27:4e:c0:cf:66:8f:ec:47:c7:e1:fc:
                    5e:64:3f:5a:85:a6:dd:bd:a4:b0:a2:ac:8f:1b:0d:
                    e1:39:48:c6:87:35:92:20:3e:cf:ed:d8:dc:d2:59:
                    70:a3:09:23:a1:cc:42:d5:25:e1:da:07:d7:1b:cd:
                    2e:dc:97:c2:c8:47:1a:d0:04:37:b7:4c:cc:50:b4:
                    10:b9:8e:aa:46:70:c9:cf:f1:00:9d:66:15:01:80:
                    3a:48:63:2e:f0:eb:10:7b:56:41:53:90:9b:34:51:
                    4d:93:b5:3b:d0:ca:d6:a1:f1:70:44:38:f4:91:e3:
                    a4:67:b0:1d:d0:b1:e7:99:6a:2e:60:d5:98:fd:a8:
                    11:70:eb:cf:2f:d5:9f:16:a8:c7:d0:53:2f:85:ab:
                    81:b4:f0:b8:94:07:1a:8b:a8:3d:27:92:27:d8:6c:
                    fa:20:8a:2b:d2:87:a4:6e:ca:36:45:52:3b:1e:70:
                    50:91:2d:86:f8:49:c8:f8:f4:9c:ef:92:6f:54:1a:
                    5d:54:47:30:37:6f:fe:69:b8:f3:75:fc:a0:f2:d9:
                    1d:7e:23:8d:0b:55:6a:40:e7:2d:32:0b:48:ed:fc:
                    93:8e:a8:6d:86:61:ce:d7:4f:77:6d:eb:bd:b2:67:
                    58:0c:95:f1:d4:9e:a4:6c:8d:dc:8a:5d:de:0c:70:
                    59:da:ec:03:e6:3e:5b:a5:c1:92:59:95:21:b4:a0:
                    2d:09:7b:cf:92:9a:96:05:88:2c:8a:97:01:1c:b2:
                    f9:b1:56:ac:e4:cb:de:5c:69:0f:58:59:c2:21:1c:
                    4a:49:68:b0:aa:1d:a0:86:b3:0c:05:8f:eb:3e:33:
                    cb:fa:5a:5d:51:0a:b0:a0:c3:c1:3b:9a:58:61:34:
                    e7:9e:5d:8c:4f:ab:2e:fc:ea:cb:d4:10:39:6f:21:
                    95:5d:85:0d:4f:f5:d4:26:65:cd:da:92:c3:02:96:
                    72:34:96:7f:1d:1d:57:a5:4e:bd:a0:7b:e7:36:ba:
                    46:df:07:b2:c7:19:b5:af:f0:5e:55:ee:2c:c6:29:
                    47:62:d5:e8:6a:6b:68:37:e8:de:f0:34:71:3b:23:
                    b0:f6:2a:47:f1:0a:a2:7a:20:b7:80:22:f3:53:15:
                    93:b8:1a:93:d1:54:58:2a:44:2c:13:97:d6:88:b2:
                    42:36:e2:81:dd:d6:d5:29:7d:92:4f:b8:ce:d1:bd:
                    b6:02:6c:f2:b6:0c:b8:78:e2:2d:6f:bb:f1:0e:bc:
                    58:7c:9d:30:a4:31:c4:1f:20:98:97:31:c4:32:dd:
                    a3:5c:61
                Exponent: 65537 (0x10001)
        X509v3 extensions:
            X509v3 Basic Constraints: 
                CA:FALSE
            Netscape Comment: 
                OpenSSL Generated Certificate
            X509v3 Subject Key Identifier: 
                6F:E2:A6:F5:18:C0:D9:BF:5A:B4:4C:48:3E:C2:AA:8F:7B:C1:A3:54
            X509v3 Authority Key Identifier: 
                keyid:B8:96:54:84:D3:41:59:31:D0:82:62:42:76:B3:B5:63:28:A0:8D:2A

    Signature Algorithm: sha256WithRSAEncryption
         a3:75:b9:5b:c5:12:6a:7a:98:03:40:98:99:46:15:50:4a:82:
         9f:ca:fe:9d:72:f8:71:de:0d:2c:98:fc:2d:84:c8:c7:0e:5a:
         d8:8f:de:87:76:aa:fe:8a:b6:28:cf:ff:cb:83:9a:fa:5f:53:
         d5:9e:3d:cd:31:53:ed:10:c1:f1:04:de:02:85:fe:6c:ee:4d:
         79:79:94:23:58:a3:11:f4:ee:10:cb:c0:7c:a8:9d:ca:0f:02:
         ba:37:a7:bb:bd:88:3a:ec:67:9a:a7:3c:68:c6:25:04:29:2d:
         66:f0:17:1d:ce:29:3d:48:c8:32:c9:5f:c2:f8:a1:62:f5:50:
         8c:11:79:cf:b7:eb:80:21:1e:ab:e5:26:ca:58:fe:35:5f:a8:
         4f:b9:41:d7:fb:0e:28:02:63:86:95:59:6d:22:9f:d8:db:fb:
         d3:c9:be:30:46:4f:b7:7e:f1:d7:7a:23:f8:0e:8f:b2:14:09:
         9f:77:f6:10:0f:02:8b:23:dd:48:f2:9c:b7:7e:9f:7a:4d:69:
         76:16:64:42:5f:02:37:bc:f6:de:89:25:1a:1c:90:12:21:38:
         e1:09:82:53:78:bd:3b:a7:62:28:80:f4:3e:6e:1a:9f:42:1d:
         05:71:c4:e5:fd:72:49:3a:b8:7a:2f:f0:e8:42:28:8d:04:f6:
         e7:ae:9e:60:72:e0:51:46:64:5d:e8:86:86:e5:99:66:26:43:
         86:00:80:5a:a4:15:8b:43:b1:0e:08:54:6b:69:30:fd:5a:48:
         c6:39:30:60:cd:1e:cc:9f:44:10:07:5d:93:cd:f4:97:1b:c9:
         8c:53:be:26:07:80:f9:57:eb:10:76:b2:c4:dd:66:8c:c6:57:
         7b:83:67:e2:00:6b:d6:90:2a:3d:00:74:f2:1d:ca:46:48:06:
         ac:c7:76:92:78:c0:62:60:10:86:53:0a:b8:6e:ff:41:10:d6:
         9f:e3:99:25:90:9c:a9:0b:e8:36:af:d3:33:d2:97:35:4a:7b:
         aa:6c:4b:a9:7e:b8:4a:af:79:8e:00:88:be:9b:7a:0e:6d:63:
         9a:71:28:b3:6b:ef:54:84:ef:2f:61:c9:8a:f5:ef:cc:70:0b:
         67:21:a3:fa:1d:ee:85:f0:26:29:85:ad:06:7f:21:ba:3a:96:
         ac:85:05:4a:73:58:fa:e2:c7:34:c7:a9:6c:44:8e:15:20:62:
         f1:33:4b:98:46:d9:8f:20:ad:44:7f:96:30:a6:31:ea:09:65:
         88:62:a5:8d:91:77:82:5b:58:19:4d:1f:4d:34:88:29:1d:82:
         db:3c:9f:7c:34:c1:b9:46:65:96:e9:1b:8d:f5:40:9c:83:62:
         c1:64:70:c8:e8:0b:6c:b9
-----BEGIN CERTIFICATE-----
MIIGSDCCBDCgAwIBAgIBAjANBgkqhkiG9w0BAQsFADCBpzELMAkGA1UEBhMCSU4x
EjAQBgNVBAgMCUthcm5hdGFrYTESMBAGA1UEBwwJQmVuZ2FsdXJ1MSUwIwYDVQQK
DBxQb3N0ZG90IFRlY2hub2xvZ2llcyBQdnQgTHRkMRQwEgYDVQQLDAtQb3N0bWFu
bGFiczEPMA0GA1UEAwwGTmV3bWFuMSIwIAYJKoZIhvcNAQkBFhNoZWxwQGdldHBv
c3RtYW4uY29tMCAXDTE2MTIxNTE1MTIyOVoYDzIwODUwMTAyMTUxMjI5WjCBpzEL
MAkGA1UEBhMCSU4xEjAQBgNVBAgMCUthcm5hdGFrYTESMBAGA1UEBwwJQmVuZ2Fs
dXJ1MSUwIwYDVQQKDBxQb3N0ZG90IFRlY2hub2xvZ2llcyBQdnQgTHRkMQ8wDQYD
VQQLDAZOZXdtYW4xFDASBgNVBAMMC1Bvc3RtYW5sYWJzMSIwIAYJKoZIhvcNAQkB
FhNoZWxwQGdldHBvc3RtYW4uY29tMIICIjANBgkqhkiG9w0BAQEFAAOCAg8AMIIC
CgKCAgEAxRqxQGSlvwrzhoL2M815D+zv4w02XWpJwlP6Rfaz9tTLJ07Az2aP7EfH
4fxeZD9ahabdvaSwoqyPGw3hOUjGhzWSID7P7djc0llwowkjocxC1SXh2gfXG80u
3JfCyEca0AQ3t0zMULQQuY6qRnDJz/EAnWYVAYA6SGMu8OsQe1ZBU5CbNFFNk7U7
0MrWofFwRDj0keOkZ7Ad0LHnmWouYNWY/agRcOvPL9WfFqjH0FMvhauBtPC4lAca
i6g9J5In2Gz6IIor0oekbso2RVI7HnBQkS2G+EnI+PSc75JvVBpdVEcwN2/+abjz
dfyg8tkdfiONC1VqQOctMgtI7fyTjqhthmHO1093beu9smdYDJXx1J6kbI3cil3e
DHBZ2uwD5j5bpcGSWZUhtKAtCXvPkpqWBYgsipcBHLL5sVas5MveXGkPWFnCIRxK
SWiwqh2ghrMMBY/rPjPL+lpdUQqwoMPBO5pYYTTnnl2MT6su/OrL1BA5byGVXYUN
T/XUJmXN2pLDApZyNJZ/HR1XpU69oHvnNrpG3weyxxm1r/BeVe4sxilHYtXoamto
N+je8DRxOyOw9ipH8QqieiC3gCLzUxWTuBqT0VRYKkQsE5fWiLJCNuKB3dbVKX2S
T7jO0b22Amzytgy4eOItb7vxDrxYfJ0wpDHEHyCYlzHEMt2jXGECAwEAAaN7MHkw
CQYDVR0TBAIwADAsBglghkgBhvhCAQ0EHxYdT3BlblNTTCBHZW5lcmF0ZWQgQ2Vy
dGlmaWNhdGUwHQYDVR0OBBYEFG/ipvUYwNm/WrRMSD7Cqo97waNUMB8GA1UdIwQY
MBaAFLiWVITTQVkx0IJiQnaztWMooI0qMA0GCSqGSIb3DQEBCwUAA4ICAQCjdblb
xRJqepgDQJiZRhVQSoKfyv6dcvhx3g0smPwthMjHDlrYj96Hdqr+irYoz//Lg5r6
X1PVnj3NMVPtEMHxBN4Chf5s7k15eZQjWKMR9O4Qy8B8qJ3KDwK6N6e7vYg67Gea
pzxoxiUEKS1m8Bcdzik9SMgyyV/C+KFi9VCMEXnPt+uAIR6r5SbKWP41X6hPuUHX
+w4oAmOGlVltIp/Y2/vTyb4wRk+3fvHXeiP4Do+yFAmfd/YQDwKLI91I8py3fp96
TWl2FmRCXwI3vPbeiSUaHJASITjhCYJTeL07p2IogPQ+bhqfQh0FccTl/XJJOrh6
L/DoQiiNBPbnrp5gcuBRRmRd6IaG5ZlmJkOGAIBapBWLQ7EOCFRraTD9WkjGOTBg
zR7Mn0QQB12TzfSXG8mMU74mB4D5V+sQdrLE3WaMxld7g2fiAGvWkCo9AHTyHcpG
SAasx3aSeMBiYBCGUwq4bv9BENaf45klkJypC+g2r9Mz0pc1SnuqbEupfrhKr3mO
AIi+m3oObWOacSiza+9UhO8vYcmK9e/McAtnIaP6He6F8CYpha0GfyG6OpashQVK
c1j64sc0x6lsRI4VIGLxM0uYRtmPIK1Ef5YwpjHqCWWIYqWNkXeCW1gZTR9NNIgp
HYLbPJ98NMG5RmWW6RuN9UCcg2LBZHDI6AtsuQ==
-----END CERTIFICATE-----
