Certificate:
    Data:
        Version: 3 (0x2)
        Serial Number: 1 (0x1)
    Signature Algorithm: sha256WithRSAEncryption
        Issuer: C=IN, ST=Karnataka, L=Bengaluru, O=Postdot Technologies Pvt Ltd, OU=Postmanlabs, CN=Newman/emailAddress=help@getpostman.com
        Validity
            Not Before: Jan 15 10:12:30 2020 GMT
            Not After : Jun  2 10:12:30 2047 GMT
        Subject: C=IN, ST=Karnataka, L=Bengaluru, O=Postdot Technologies Pvt Ltd, OU=Postmanlabs, CN=localhost/emailAddress=help@getpostman.com
        Subject Public Key Info:
            Public Key Algorithm: rsaEncryption
                Public-Key: (4096 bit)
                Modulus:
                    00:fe:31:3b:6a:f8:a1:41:79:85:d4:0d:ea:db:7e:
                    d5:ce:37:52:75:af:2c:22:76:74:ed:c8:bc:eb:6b:
                    e6:2a:cf:74:cf:78:76:6e:e6:11:7c:99:74:45:43:
                    a0:8a:7d:7c:6d:bc:43:e2:7f:84:a0:a3:88:87:45:
                    14:3d:13:1c:85:0e:ea:c4:67:31:fe:e9:07:a4:b8:
                    ad:40:fc:7c:a3:47:c2:08:7d:93:6f:e1:b7:68:a3:
                    0f:f5:d5:b1:fe:9e:54:47:8f:bb:72:95:fe:05:33:
                    96:af:83:60:37:b5:72:95:26:bc:dc:c8:0b:56:ac:
                    96:2f:88:dc:72:76:81:fa:46:79:98:75:26:c6:a1:
                    01:5a:2a:06:27:da:f7:ee:c3:2e:64:08:05:24:db:
                    ab:26:5b:ae:74:ee:37:4b:20:2e:6c:82:5a:10:69:
                    82:ce:39:7f:a7:6b:b3:86:19:d0:8b:92:05:d9:8e:
                    30:ff:c1:aa:59:b6:40:10:b4:62:6c:78:38:af:aa:
                    ac:68:bb:45:6d:2b:17:5d:f2:ea:07:4b:b3:54:40:
                    0e:ee:53:21:65:53:44:c2:3a:2a:25:0b:0d:8a:86:
                    a7:39:c5:9f:1a:e4:8f:ff:e3:77:2d:62:5b:98:64:
                    43:cb:43:47:3f:52:3b:a8:12:f8:26:22:6e:f5:96:
                    5f:4b:a9:9c:50:35:1d:0a:9f:19:70:11:4d:cf:b5:
                    f6:55:14:e6:66:15:63:f0:8c:49:2b:30:ed:5b:b5:
                    cd:02:9f:38:6d:48:63:1f:3d:30:91:2f:7f:6d:9e:
                    b3:57:bd:f5:b2:52:d2:42:f6:33:c7:6e:a4:57:24:
                    1c:6e:b5:d6:a6:29:fc:33:e1:f3:88:50:1f:65:d8:
                    a8:f9:7b:68:36:c3:33:69:04:ad:ac:18:83:c6:03:
                    31:49:fb:dd:54:2d:c3:79:17:73:e2:e3:03:5e:50:
                    6b:79:c8:6d:09:79:8c:ed:7d:1f:7a:bf:74:f9:0c:
                    ab:11:b6:2b:af:d2:fe:f4:68:79:76:7d:97:88:84:
                    0f:b9:f7:8a:ff:60:1f:f0:15:90:85:dc:ea:23:3d:
                    73:c4:32:7c:5a:f9:cb:24:35:0b:d9:0c:0d:04:0b:
                    dc:93:37:41:0e:76:ff:b9:e2:e5:eb:df:18:27:8f:
                    93:02:8c:f3:39:2b:6d:03:e0:83:7f:f7:52:81:4a:
                    bc:f8:37:9b:7c:9c:a1:ed:f1:ee:dd:8f:9b:7c:9b:
                    18:ce:4f:b4:73:95:e7:f4:c9:d6:51:30:8b:01:f9:
                    7f:36:93:26:6d:90:5c:0f:ed:a8:8f:b4:fd:2e:c0:
                    13:fc:d3:75:cb:a0:53:04:8c:73:fe:06:e4:41:49:
                    4e:bc:5b
                Exponent: 65537 (0x10001)
        X509v3 extensions:
            X509v3 Basic Constraints: 
                CA:FALSE
            Netscape Comment: 
                OpenSSL Generated Certificate
            X509v3 Subject Key Identifier: 
                24:85:1D:DB:2D:16:70:30:8D:08:11:EE:BB:C1:97:95:70:E4:1B:CC
            X509v3 Authority Key Identifier: 
                keyid:B8:96:54:84:D3:41:59:31:D0:82:62:42:76:B3:B5:63:28:A0:8D:2A

    Signature Algorithm: sha256WithRSAEncryption
         95:27:6d:09:f0:78:d2:cf:bf:05:c2:9a:f7:b5:80:ff:2c:ab:
         36:60:82:58:92:30:79:81:05:87:75:f9:c4:7f:77:c2:79:dc:
         16:3d:2b:00:6e:45:e7:a2:bb:c9:97:47:f0:b4:31:7d:c0:bb:
         17:f0:d8:3b:01:cc:69:ca:38:ae:88:4b:60:e3:1e:0e:22:90:
         0f:3d:da:79:f9:2b:7e:04:c0:00:00:69:7d:6b:6a:1d:4a:58:
         e6:a9:85:a3:2e:19:69:00:fe:98:24:f4:46:11:9a:5b:f5:5e:
         6a:f0:14:8d:71:10:7c:0e:9b:f3:36:57:c6:c9:57:c2:ff:a0:
         56:e8:29:22:59:22:10:45:5f:3e:f2:29:31:b5:2b:ca:93:32:
         f0:2f:ad:48:80:3b:5a:07:7c:d9:74:e2:d8:0f:2f:48:4f:12:
         02:95:ab:f5:59:67:d3:64:7a:3e:35:5d:a6:55:48:c0:29:94:
         08:0e:f3:5e:2b:61:99:dd:4e:e7:49:43:9b:29:3d:ee:ae:3d:
         f5:d7:11:42:b3:27:7d:dd:db:2b:72:8d:7c:96:10:03:57:1e:
         6c:cc:ef:0a:58:88:28:b1:a5:23:dd:84:37:37:03:af:29:95:
         de:2b:e2:75:fb:1f:cd:ca:c1:f9:1a:31:02:60:af:7b:14:a9:
         57:4a:15:a1:e2:00:8c:60:ff:f8:50:47:7a:e6:f2:a5:c7:e7:
         35:4a:ac:0a:f8:2f:fd:a7:50:69:5d:ad:6f:39:3b:f3:8f:12:
         0d:93:97:a3:d3:24:df:42:b4:bf:e2:59:15:53:52:34:18:81:
         2b:c9:82:7f:47:20:48:04:62:24:5e:b8:47:0b:e5:98:e4:c2:
         6b:73:e1:7f:7a:ec:59:ff:ff:87:49:35:33:24:12:50:4a:89:
         4f:5e:02:af:89:31:88:b8:2e:2d:de:f0:82:00:6e:15:62:7a:
         2e:a8:e2:b2:1e:ed:0c:52:f1:52:cf:2d:d8:bb:16:9f:87:3a:
         07:3b:90:d4:96:cf:07:33:32:7b:25:e8:a3:6e:38:fd:b7:96:
         a3:6a:e5:44:6f:82:88:78:e8:fa:ed:81:ff:11:36:e6:94:cf:
         f9:a1:c7:29:fb:24:1e:dc:35:37:32:82:b9:24:1c:b1:05:7f:
         a5:60:b8:db:21:b2:09:42:0a:95:8d:e0:13:ea:21:ed:d2:1b:
         b4:94:71:f1:ee:2d:e8:a5:f1:e5:59:73:a4:f3:ce:cf:ae:9e:
         44:79:c5:6e:bd:74:27:43:ff:01:9c:0b:a1:16:80:03:51:a1:
         72:c8:d0:0b:bf:5e:6c:89:b5:c1:47:83:18:13:9d:5e:0e:2a:
         ab:1f:8f:36:fb:a7:9f:e1
-----BEGIN CERTIFICATE-----
MIIGSTCCBDGgAwIBAgIBATANBgkqhkiG9w0BAQsFADCBpzELMAkGA1UEBhMCSU4x
EjAQBgNVBAgMCUthcm5hdGFrYTESMBAGA1UEBwwJQmVuZ2FsdXJ1MSUwIwYDVQQK
DBxQb3N0ZG90IFRlY2hub2xvZ2llcyBQdnQgTHRkMRQwEgYDVQQLDAtQb3N0bWFu
bGFiczEPMA0GA1UEAwwGTmV3bWFuMSIwIAYJKoZIhvcNAQkBFhNoZWxwQGdldHBv
c3RtYW4uY29tMB4XDTIwMDExNTEwMTIzMFoXDTQ3MDYwMjEwMTIzMFowgaoxCzAJ
BgNVBAYTAklOMRIwEAYDVQQIDAlLYXJuYXRha2ExEjAQBgNVBAcMCUJlbmdhbHVy
dTElMCMGA1UECgwcUG9zdGRvdCBUZWNobm9sb2dpZXMgUHZ0IEx0ZDEUMBIGA1UE
CwwLUG9zdG1hbmxhYnMxEjAQBgNVBAMMCWxvY2FsaG9zdDEiMCAGCSqGSIb3DQEJ
ARYTaGVscEBnZXRwb3N0bWFuLmNvbTCCAiIwDQYJKoZIhvcNAQEBBQADggIPADCC
AgoCggIBAP4xO2r4oUF5hdQN6tt+1c43UnWvLCJ2dO3IvOtr5irPdM94dm7mEXyZ
dEVDoIp9fG28Q+J/hKCjiIdFFD0THIUO6sRnMf7pB6S4rUD8fKNHwgh9k2/ht2ij
D/XVsf6eVEePu3KV/gUzlq+DYDe1cpUmvNzIC1asli+I3HJ2gfpGeZh1JsahAVoq
Bifa9+7DLmQIBSTbqyZbrnTuN0sgLmyCWhBpgs45f6drs4YZ0IuSBdmOMP/Bqlm2
QBC0Ymx4OK+qrGi7RW0rF13y6gdLs1RADu5TIWVTRMI6KiULDYqGpznFnxrkj//j
dy1iW5hkQ8tDRz9SO6gS+CYibvWWX0upnFA1HQqfGXARTc+19lUU5mYVY/CMSSsw
7Vu1zQKfOG1IYx89MJEvf22es1e99bJS0kL2M8dupFckHG611qYp/DPh84hQH2XY
qPl7aDbDM2kErawYg8YDMUn73VQtw3kXc+LjA15Qa3nIbQl5jO19H3q/dPkMqxG2
K6/S/vRoeXZ9l4iED7n3iv9gH/AVkIXc6iM9c8QyfFr5yyQ1C9kMDQQL3JM3QQ52
/7ni5evfGCePkwKM8zkrbQPgg3/3UoFKvPg3m3ycoe3x7t2Pm3ybGM5PtHOV5/TJ
1lEwiwH5fzaTJm2QXA/tqI+0/S7AE/zTdcugUwSMc/4G5EFJTrxbAgMBAAGjezB5
MAkGA1UdEwQCMAAwLAYJYIZIAYb4QgENBB8WHU9wZW5TU0wgR2VuZXJhdGVkIENl
cnRpZmljYXRlMB0GA1UdDgQWBBQkhR3bLRZwMI0IEe67wZeVcOQbzDAfBgNVHSME
GDAWgBS4llSE00FZMdCCYkJ2s7VjKKCNKjANBgkqhkiG9w0BAQsFAAOCAgEAlSdt
CfB40s+/BcKa97WA/yyrNmCCWJIweYEFh3X5xH93wnncFj0rAG5F56K7yZdH8LQx
fcC7F/DYOwHMaco4rohLYOMeDiKQDz3aefkrfgTAAABpfWtqHUpY5qmFoy4ZaQD+
mCT0RhGaW/VeavAUjXEQfA6b8zZXxslXwv+gVugpIlkiEEVfPvIpMbUrypMy8C+t
SIA7Wgd82XTi2A8vSE8SApWr9Vln02R6PjVdplVIwCmUCA7zXithmd1O50lDmyk9
7q499dcRQrMnfd3bK3KNfJYQA1cebMzvCliIKLGlI92ENzcDrymV3ividfsfzcrB
+RoxAmCvexSpV0oVoeIAjGD/+FBHeubypcfnNUqsCvgv/adQaV2tbzk7848SDZOX
o9Mk30K0v+JZFVNSNBiBK8mCf0cgSARiJF64RwvlmOTCa3Phf3rsWf//h0k1MyQS
UEqJT14Cr4kxiLguLd7wggBuFWJ6Lqjish7tDFLxUs8t2LsWn4c6BzuQ1JbPBzMy
eyXoo244/beWo2rlRG+CiHjo+u2B/xE25pTP+aHHKfskHtw1NzKCuSQcsQV/pWC4
2yGyCUIKlY3gE+oh7dIbtJRx8e4t6KXx5VlzpPPOz66eRHnFbr10J0P/AZwLoRaA
A1GhcsjQC79ebIm1wUeDGBOdXg4qqx+PNvunn+E=
-----END CERTIFICATE-----
