Certificate:
    Data:
        Version: 3 (0x2)
        Serial Number: 1 (0x1)
    Signature Algorithm: sha256WithRSAEncryption
        Issuer: C=IN, ST=Karnataka, L=Bengaluru, O=Postdot Technologies Pvt Ltd, OU=Postmanlabs, CN=Newman/emailAddress=help@getpostman.com
        Validity
            Not Before: Dec 15 15:04:38 2016 GMT
            Not After : Jan  2 15:04:38 2085 GMT
        Subject: C=IN, ST=Karnataka, L=Bengaluru, O=Postdot Technologies Pvt Ltd, OU=Postmanlabs, CN=Newman/emailAddress=help@getpostman.com
        Subject Public Key Info:
            Public Key Algorithm: rsaEncryption
                Public-Key: (4096 bit)
                Modulus:
                    00:fe:31:3b:6a:f8:a1:41:79:85:d4:0d:ea:db:7e:
                    d5:ce:37:52:75:af:2c:22:76:74:ed:c8:bc:eb:6b:
                    e6:2a:cf:74:cf:78:76:6e:e6:11:7c:99:74:45:43:
                    a0:8a:7d:7c:6d:bc:43:e2:7f:84:a0:a3:88:87:45:
                    14:3d:13:1c:85:0e:ea:c4:67:31:fe:e9:07:a4:b8:
                    ad:40:fc:7c:a3:47:c2:08:7d:93:6f:e1:b7:68:a3:
                    0f:f5:d5:b1:fe:9e:54:47:8f:bb:72:95:fe:05:33:
                    96:af:83:60:37:b5:72:95:26:bc:dc:c8:0b:56:ac:
                    96:2f:88:dc:72:76:81:fa:46:79:98:75:26:c6:a1:
                    01:5a:2a:06:27:da:f7:ee:c3:2e:64:08:05:24:db:
                    ab:26:5b:ae:74:ee:37:4b:20:2e:6c:82:5a:10:69:
                    82:ce:39:7f:a7:6b:b3:86:19:d0:8b:92:05:d9:8e:
                    30:ff:c1:aa:59:b6:40:10:b4:62:6c:78:38:af:aa:
                    ac:68:bb:45:6d:2b:17:5d:f2:ea:07:4b:b3:54:40:
                    0e:ee:53:21:65:53:44:c2:3a:2a:25:0b:0d:8a:86:
                    a7:39:c5:9f:1a:e4:8f:ff:e3:77:2d:62:5b:98:64:
                    43:cb:43:47:3f:52:3b:a8:12:f8:26:22:6e:f5:96:
                    5f:4b:a9:9c:50:35:1d:0a:9f:19:70:11:4d:cf:b5:
                    f6:55:14:e6:66:15:63:f0:8c:49:2b:30:ed:5b:b5:
                    cd:02:9f:38:6d:48:63:1f:3d:30:91:2f:7f:6d:9e:
                    b3:57:bd:f5:b2:52:d2:42:f6:33:c7:6e:a4:57:24:
                    1c:6e:b5:d6:a6:29:fc:33:e1:f3:88:50:1f:65:d8:
                    a8:f9:7b:68:36:c3:33:69:04:ad:ac:18:83:c6:03:
                    31:49:fb:dd:54:2d:c3:79:17:73:e2:e3:03:5e:50:
                    6b:79:c8:6d:09:79:8c:ed:7d:1f:7a:bf:74:f9:0c:
                    ab:11:b6:2b:af:d2:fe:f4:68:79:76:7d:97:88:84:
                    0f:b9:f7:8a:ff:60:1f:f0:15:90:85:dc:ea:23:3d:
                    73:c4:32:7c:5a:f9:cb:24:35:0b:d9:0c:0d:04:0b:
                    dc:93:37:41:0e:76:ff:b9:e2:e5:eb:df:18:27:8f:
                    93:02:8c:f3:39:2b:6d:03:e0:83:7f:f7:52:81:4a:
                    bc:f8:37:9b:7c:9c:a1:ed:f1:ee:dd:8f:9b:7c:9b:
                    18:ce:4f:b4:73:95:e7:f4:c9:d6:51:30:8b:01:f9:
                    7f:36:93:26:6d:90:5c:0f:ed:a8:8f:b4:fd:2e:c0:
                    13:fc:d3:75:cb:a0:53:04:8c:73:fe:06:e4:41:49:
                    4e:bc:5b
                Exponent: 65537 (0x10001)
        X509v3 extensions:
            X509v3 Basic Constraints: 
                CA:FALSE
            Netscape Comment: 
                OpenSSL Generated Certificate
            X509v3 Subject Key Identifier: 
                24:85:1D:DB:2D:16:70:30:8D:08:11:EE:BB:C1:97:95:70:E4:1B:CC
            X509v3 Authority Key Identifier: 
                keyid:B8:96:54:84:D3:41:59:31:D0:82:62:42:76:B3:B5:63:28:A0:8D:2A

    Signature Algorithm: sha256WithRSAEncryption
         3b:99:90:be:03:77:f7:3e:c1:c7:6a:e8:ab:9d:2b:05:33:73:
         80:f7:52:7f:86:c0:24:9f:46:ca:8c:f3:f4:52:f6:05:1d:72:
         9d:aa:50:7c:b4:fe:d6:92:8d:97:9b:70:96:8e:96:a0:39:d4:
         69:0d:34:f8:db:42:ff:f7:cb:4e:74:7a:9a:1b:e0:9d:34:41:
         6e:b7:85:93:52:4c:ba:40:83:75:f5:19:a8:b7:ab:14:b8:75:
         82:7b:b2:83:b0:12:46:57:c6:ce:4a:4c:14:5b:1b:51:57:84:
         3f:e3:94:3c:31:da:13:b4:03:55:62:1a:e6:b2:12:9a:87:84:
         82:bc:50:8e:b5:dc:82:de:47:d7:a7:e5:75:68:ab:10:8a:10:
         6a:cf:ff:ed:8a:e3:6c:a9:3f:c3:12:51:3a:0a:03:c2:9c:26:
         69:8d:b8:81:91:13:1f:a0:ed:30:c6:f9:9c:86:d4:87:bc:81:
         08:ff:30:a7:d9:2c:72:38:41:20:08:bf:ce:b1:8a:a7:08:fb:
         53:ae:26:b5:74:2f:f6:04:8b:63:dd:40:a0:3a:81:5a:4c:dd:
         0c:f5:a9:00:b0:bb:c7:bc:9f:5b:0f:5e:18:ee:54:29:1c:b8:
         d8:fc:dc:1f:87:66:fb:bb:0f:48:ae:88:d7:cd:4f:2d:f3:24:
         0e:fe:b8:2c:a7:63:63:17:04:60:24:25:72:4a:7d:61:92:9c:
         0d:9c:4c:3e:08:bd:16:fb:bd:cb:a5:fd:c4:b7:f6:35:b0:22:
         4b:7f:dc:1e:dc:f1:18:43:6c:31:89:b4:ef:67:a1:48:9e:1a:
         0d:3d:e0:f5:13:1f:9a:1c:85:a5:11:93:fc:cc:9b:fd:24:74:
         49:a1:91:57:2d:81:10:39:c1:41:78:2d:f4:bb:39:9f:90:b9:
         74:3d:18:04:12:45:d6:19:0b:a4:ff:f0:d8:e3:fc:4e:38:1f:
         08:b6:25:ee:8a:a8:bd:37:ba:08:be:34:3c:ab:83:fb:55:f9:
         b0:1f:76:ba:a1:7f:88:b6:76:70:11:89:0e:9e:a0:01:af:8a:
         74:17:72:69:00:dd:78:c0:1a:fe:8c:ac:57:73:8b:b5:66:88:
         07:e8:ca:3b:28:2d:69:d9:f8:fc:60:17:f3:6d:c9:bf:cb:11:
         49:6e:7c:0c:4c:a7:67:70:3c:93:a8:64:db:c0:2b:21:86:94:
         d5:e2:55:77:4d:b2:e2:19:54:fd:cd:2e:71:c8:69:a8:af:36:
         1f:2e:e6:f8:ed:e5:07:3d:e7:49:c7:79:d9:56:3a:93:b5:18:
         b4:30:49:36:6f:89:b4:ed:07:c0:29:03:94:22:43:6b:1b:a8:
         7a:c6:0d:0c:e0:d9:55:37
-----BEGIN CERTIFICATE-----
MIIGSDCCBDCgAwIBAgIBATANBgkqhkiG9w0BAQsFADCBpzELMAkGA1UEBhMCSU4x
EjAQBgNVBAgMCUthcm5hdGFrYTESMBAGA1UEBwwJQmVuZ2FsdXJ1MSUwIwYDVQQK
DBxQb3N0ZG90IFRlY2hub2xvZ2llcyBQdnQgTHRkMRQwEgYDVQQLDAtQb3N0bWFu
bGFiczEPMA0GA1UEAwwGTmV3bWFuMSIwIAYJKoZIhvcNAQkBFhNoZWxwQGdldHBv
c3RtYW4uY29tMCAXDTE2MTIxNTE1MDQzOFoYDzIwODUwMTAyMTUwNDM4WjCBpzEL
MAkGA1UEBhMCSU4xEjAQBgNVBAgMCUthcm5hdGFrYTESMBAGA1UEBwwJQmVuZ2Fs
dXJ1MSUwIwYDVQQKDBxQb3N0ZG90IFRlY2hub2xvZ2llcyBQdnQgTHRkMRQwEgYD
VQQLDAtQb3N0bWFubGFiczEPMA0GA1UEAwwGTmV3bWFuMSIwIAYJKoZIhvcNAQkB
FhNoZWxwQGdldHBvc3RtYW4uY29tMIICIjANBgkqhkiG9w0BAQEFAAOCAg8AMIIC
CgKCAgEA/jE7avihQXmF1A3q237VzjdSda8sInZ07ci862vmKs90z3h2buYRfJl0
RUOgin18bbxD4n+EoKOIh0UUPRMchQ7qxGcx/ukHpLitQPx8o0fCCH2Tb+G3aKMP
9dWx/p5UR4+7cpX+BTOWr4NgN7VylSa83MgLVqyWL4jccnaB+kZ5mHUmxqEBWioG
J9r37sMuZAgFJNurJluudO43SyAubIJaEGmCzjl/p2uzhhnQi5IF2Y4w/8GqWbZA
ELRibHg4r6qsaLtFbSsXXfLqB0uzVEAO7lMhZVNEwjoqJQsNioanOcWfGuSP/+N3
LWJbmGRDy0NHP1I7qBL4JiJu9ZZfS6mcUDUdCp8ZcBFNz7X2VRTmZhVj8IxJKzDt
W7XNAp84bUhjHz0wkS9/bZ6zV731slLSQvYzx26kVyQcbrXWpin8M+HziFAfZdio
+XtoNsMzaQStrBiDxgMxSfvdVC3DeRdz4uMDXlBrechtCXmM7X0fer90+QyrEbYr
r9L+9Gh5dn2XiIQPufeK/2Af8BWQhdzqIz1zxDJ8WvnLJDUL2QwNBAvckzdBDnb/
ueLl698YJ4+TAozzOSttA+CDf/dSgUq8+DebfJyh7fHu3Y+bfJsYzk+0c5Xn9MnW
UTCLAfl/NpMmbZBcD+2oj7T9LsAT/NN1y6BTBIxz/gbkQUlOvFsCAwEAAaN7MHkw
CQYDVR0TBAIwADAsBglghkgBhvhCAQ0EHxYdT3BlblNTTCBHZW5lcmF0ZWQgQ2Vy
dGlmaWNhdGUwHQYDVR0OBBYEFCSFHdstFnAwjQgR7rvBl5Vw5BvMMB8GA1UdIwQY
MBaAFLiWVITTQVkx0IJiQnaztWMooI0qMA0GCSqGSIb3DQEBCwUAA4ICAQA7mZC+
A3f3PsHHauirnSsFM3OA91J/hsAkn0bKjPP0UvYFHXKdqlB8tP7Wko2Xm3CWjpag
OdRpDTT420L/98tOdHqaG+CdNEFut4WTUky6QIN19Rmot6sUuHWCe7KDsBJGV8bO
SkwUWxtRV4Q/45Q8MdoTtANVYhrmshKah4SCvFCOtdyC3kfXp+V1aKsQihBqz//t
iuNsqT/DElE6CgPCnCZpjbiBkRMfoO0wxvmchtSHvIEI/zCn2SxyOEEgCL/OsYqn
CPtTria1dC/2BItj3UCgOoFaTN0M9akAsLvHvJ9bD14Y7lQpHLjY/Nwfh2b7uw9I
rojXzU8t8yQO/rgsp2NjFwRgJCVySn1hkpwNnEw+CL0W+73Lpf3Et/Y1sCJLf9we
3PEYQ2wxibTvZ6FInhoNPeD1Ex+aHIWlEZP8zJv9JHRJoZFXLYEQOcFBeC30uzmf
kLl0PRgEEkXWGQuk//DY4/xOOB8ItiXuiqi9N7oIvjQ8q4P7VfmwH3a6oX+ItnZw
EYkOnqABr4p0F3JpAN14wBr+jKxXc4u1ZogH6Mo7KC1p2fj8YBfzbcm/yxFJbnwM
TKdncDyTqGTbwCshhpTV4lV3TbLiGVT9zS5xyGmorzYfLub47eUHPedJx3nZVjqT
tRi0MEk2b4m07QfAKQOUIkNrG6h6xg0M4NlVNw==
-----END CERTIFICATE-----
